; Function Attrs: mustprogress uwtable
define hidden void @_ZN3smt5setup11setup_UFLRAEv(ptr nocapture noundef nonnull readonly align 8 dereferenceable(33) %this) local_unnamed_addr #4 align 2 {
entry:
  %m_params.i = getelementptr inbounds i8, ptr %this, i64 16
  %0 = load ptr, ptr %m_params.i, align 8
  tail call void @_ZN10smt_params13setup_AUFLIRAEb(ptr noundef nonnull align 8 dereferenceable(800) %0, i1 noundef zeroext true)
  tail call void @_ZN3smt5setup14setup_mi_arithEv(ptr noundef nonnull align 8 dereferenceable(33) %this)
  tail call void @_ZN3smt5setup12setup_arraysEv(ptr noundef nonnull align 8 dereferenceable(33) %this)
  ret void
}